Certificate:
    Data:
        Version: 1 (0x0)
        Serial Number: 1 (0x1)
        Signature Algorithm: md5WithRSAEncryption
        Issuer: C=PL, ST=Swietokrzyskie, L=Skarzysko-Kamienna, O=UrzadMiasta, OU=inf, CN=Piotr/emailAddress=piotr@admin.pl
        Validity
            Not Before: Jun  8 22:47:59 2015 GMT
            Not After : Jun  7 22:47:59 2016 GMT
        Subject: C=PL, ST=Mazowieckie, L=Warsaw, O=PW, OU=EE, CN=Jacek/emailAddress=kabaczek666@interia.pl
        Subject Public Key Info:
            Public Key Algorithm: rsaEncryption
            RSA Public Key: (1024 bit)
                Modulus (1024 bit):
                    00:ce:07:4d:2d:26:93:76:f6:8d:5b:d4:6e:46:56:
                    94:03:f6:8f:32:e3:e1:21:8e:70:b6:d6:4a:1c:ff:
                    5e:cd:8c:0f:03:33:99:52:49:c8:98:51:97:78:67:
                    28:79:20:a1:af:4b:13:d8:12:0f:00:28:68:41:79:
                    ff:86:e8:0f:44:a1:d5:44:9e:30:6b:58:43:22:62:
                    d5:e8:30:04:1e:d0:ff:fc:b7:8c:af:93:96:b6:8f:
                    73:c1:e4:2e:58:0c:79:9c:39:81:ca:54:e0:cf:2f:
                    a7:70:26:34:13:f1:6a:e9:85:7a:dd:3b:4e:a1:0f:
                    1e:c5:15:c7:23:0a:39:fb:8b
                Exponent: 65537 (0x10001)
    Signature Algorithm: md5WithRSAEncryption
        30:fc:68:8b:3b:2d:6a:e4:d8:12:9e:d1:db:21:1c:ab:0b:63:
        a6:b0:7c:8b:71:1a:56:d8:6e:74:f6:5b:5e:1d:f0:ee:6c:f3:
        f8:d3:e4:4a:9b:34:04:06:21:5b:bb:dc:26:89:0f:2a:d5:81:
        b9:c8:1e:6b:ea:ab:75:2a:ae:15:bb:c8:f8:b8:cf:44:27:c0:
        43:3f:e5:e9:0d:85:30:36:c5:c8:d3:d9:27:f6:36:5c:f9:ee:
        89:80:3b:63:76:72:60:ad:2b:c8:25:ed:c4:66:bd:24:c6:0e:
        14:93:0d:bc:f7:75:fc:24:0b:fa:80:56:42:d7:e5:87:70:a0:
        c0:3c
-----BEGIN CERTIFICATE-----
MIICjDCCAfUCAQEwDQYJKoZIhvcNAQEEBQAwgZYxCzAJBgNVBAYTAlBMMRcwFQYD
VQQIEw5Td2lldG9rcnp5c2tpZTEbMBkGA1UEBxMSU2thcnp5c2tvLUthbWllbm5h
MRQwEgYDVQQKEwtVcnphZE1pYXN0YTEMMAoGA1UECxMDaW5mMQ4wDAYDVQQDEwVQ
aW90cjEdMBsGCSqGSIb3DQEJARYOcGlvdHJAYWRtaW4ucGwwHhcNMTUwNjA4MjI0
NzU5WhcNMTYwNjA3MjI0NzU5WjCBhTELMAkGA1UEBhMCUEwxFDASBgNVBAgTC01h
em93aWVja2llMQ8wDQYDVQQHEwZXYXJzYXcxCzAJBgNVBAoTAlBXMQswCQYDVQQL
EwJFRTEOMAwGA1UEAxMFSmFjZWsxJTAjBgkqhkiG9w0BCQEWFmthYmFjemVrNjY2
QGludGVyaWEucGwwgZ8wDQYJKoZIhvcNAQEBBQADgY0AMIGJAoGBAM4HTS0mk3b2
jVvUbkZWlAP2jzLj4SGOcLbWShz/Xs2MDwMzmVJJyJhRl3hnKHkgoa9LE9gSDwAo
aEF5/4boD0Sh1USeMGtYQyJi1egwBB7Q//y3jK+TlraPc8HkLlgMeZw5gcpU4M8v
p3AmNBPxaumFet07TqEPHsUVxyMKOfuLAgMBAAEwDQYJKoZIhvcNAQEEBQADgYEA
MPxoizstauTYEp7R2yEcqwtjprB8i3EaVthudPZbXh3w7mzz+NPkSps0BAYhW7vc
JokPKtWBucgea+qrdSquFbvI+LjPRCfAQz/l6Q2FMDbFyNPZJ/Y2XPnuiYA7Y3Zy
YK0ryCXtxGa9JMYOFJMNvPd1/CQL+oBWQtflh3CgwDw=
-----END CERTIFICATE-----
